Certificate:
    Data:
        Version: 3 (0x2)
        Serial Number: 4098 (0x1002)
    Signature Algorithm: sha256WithRSAEncryption
        Issuer: C=CA, ST=Ontario, L=Kitchener, O=Kwartzlab, OU=keymaster, CN=keymaster.at.kwartzlab.ca/emailAddress=keymaster@kwartzlab.ca
        Validity
            Not Before: Mar 11 01:06:19 2017 GMT
            Not After : Mar 10 01:06:19 2022 GMT
        Subject: C=CA, ST=Ontario, O=Kwartzlab, OU=Keymaster, CN=keymaster.at.kwartzlab.ca
        Subject Public Key Info:
            Public Key Algorithm: rsaEncryption
                Public-Key: (2048 bit)
                Modulus:
                    00:be:37:6b:b9:5a:60:a6:ba:3a:80:d9:90:d1:4a:
                    3f:68:94:73:44:46:b3:b7:63:cf:4f:61:e5:71:de:
                    87:3e:e8:4e:39:44:1f:3e:e9:37:fe:f4:0f:e7:b1:
                    8d:42:43:23:13:10:84:f8:f8:47:e1:e2:68:da:04:
                    e5:08:79:4f:72:78:62:b6:3e:07:75:a8:f1:5d:0d:
                    3d:e8:df:6a:59:b2:95:90:b1:5d:f8:e9:10:41:f8:
                    b3:a0:b4:d2:39:ab:bd:d3:b5:69:76:b2:a8:bc:6f:
                    c4:b6:34:a1:53:b2:6b:1b:1d:ee:57:f4:0a:54:69:
                    09:61:95:c6:84:69:86:22:1c:98:1d:d5:e9:97:0b:
                    a8:dd:61:a9:32:f2:73:64:33:b6:8e:5b:88:a7:fe:
                    f9:d5:f5:50:3d:ff:c0:ee:7a:b5:14:9d:75:1b:f6:
                    59:64:7d:10:11:ce:21:b1:a8:84:29:50:01:84:07:
                    94:29:48:ea:b0:6f:1b:c7:35:0d:d3:a5:ac:da:1a:
                    d2:c5:1f:a7:da:b6:7e:48:61:8f:f4:23:92:74:44:
                    88:55:69:6d:8b:c7:44:52:b3:e7:99:db:0f:f4:10:
                    52:62:ea:66:9e:36:10:94:a8:8d:d5:57:28:24:0c:
                    8f:8f:83:be:5b:4d:2a:d4:f9:3b:4c:b9:80:35:86:
                    4b:b7
                Exponent: 65537 (0x10001)
        X509v3 extensions:
            X509v3 Basic Constraints:
                CA:FALSE
            Netscape Comment:
                OpenSSL Generated Certificate
            X509v3 Subject Key Identifier:
                E4:67:6F:47:4D:92:F2:8C:82:CE:25:1C:E0:E1:B9:11:51:52:14:47
            X509v3 Authority Key Identifier:
                keyid:C2:71:DF:B4:71:D1:2D:DF:B4:08:FA:33:38:CB:0C:9B:9C:1B:98:53

    Signature Algorithm: sha256WithRSAEncryption
         e4:76:b9:86:dc:e1:0d:fc:a3:b6:a6:c0:51:dc:34:19:cf:97:
         27:d7:3f:8e:34:a4:89:de:49:9f:9e:34:44:f3:28:7a:b3:2a:
         b5:0f:2e:b2:06:a5:01:02:f0:60:0a:c0:88:81:ff:06:cb:7a:
         f0:d7:a9:fd:5b:f0:c0:e8:4d:26:f9:b6:5f:98:0e:d4:84:22:
         8a:a4:53:01:a7:65:f6:07:12:fc:eb:95:2d:3e:ff:7f:ba:ea:
         21:2f:0c:83:77:72:b0:97:b3:f9:80:07:07:15:fd:1e:64:63:
         11:14:3c:a3:44:3e:52:bf:17:51:ef:57:8e:71:ad:7e:a7:74:
         3e:fe:db:50:7a:d8:49:d5:73:43:df:f9:61:b7:7b:5c:09:9f:
         1d:d5:1b:3a:96:56:d9:b0:d7:8d:2c:2d:8a:6b:08:d1:ae:4a:
         6d:0a:3d:18:40:ec:f1:a3:54:11:87:e4:90:57:90:71:00:69:
         c5:95:ba:94:b2:ff:91:45:55:22:19:71:01:fe:93:37:6c:f1:
         47:91:53:f3:b1:9c:1e:fc:cb:54:c8:20:39:32:46:ed:57:fd:
         dd:80:05:dd:b6:f1:e4:41:be:a6:37:0c:32:75:2c:87:7d:4c:
         88:e9:15:4e:f4:3a:e6:a0:f7:37:2d:70:c9:49:2c:53:57:18:
         04:69:ef:4d:f6:5a:dd:a9:42:14:c4:b0:51:9f:21:ec:e7:2e:
         19:21:96:c6:83:ec:c7:5c:ca:6d:8f:e3:eb:db:9f:ff:c3:5a:
         6b:f5:31:1c:b5:8f:82:ff:29:1d:1e:35:b5:7b:dd:47:49:28:
         1b:11:5f:79:de:1c:cc:d5:8c:7f:6a:85:b0:22:eb:47:13:73:
         83:5c:7b:51:73:70:8a:5a:13:67:c1:59:1c:b8:ba:14:18:c9:
         b0:1b:86:46:56:f6:59:35:b2:86:95:86:6e:f7:df:79:8f:9f:
         18:25:3b:e2:7c:71:c4:24:17:d4:5b:94:01:4b:a0:45:94:86:
         6c:1b:cd:75:76:f9:08:22:0b:94:d3:a3:bd:25:a5:99:ff:8d:
         0d:23:11:2a:53:b0:d1:4a:ae:70:42:73:51:63:1a:c8:e1:b1:
         96:4c:36:1e:35:43:ef:ce:68:2d:41:90:d2:35:4d:f4:f2:b1:
         51:cd:c9:a0:8f:d9:a0:74:90:b8:9d:d1:d5:43:1d:cd:93:31:
         c1:8a:3a:1c:58:14:a6:d4:2f:6c:cf:79:2c:06:37:40:ab:c9:
         e2:f0:57:f4:83:ba:c8:e0:0a:3f:8c:5d:41:89:d2:67:cf:45:
         cd:f1:bc:3e:60:ce:8c:d1:c6:45:f8:c8:63:9f:15:de:7f:0f:
         67:a9:3b:e5:ad:df:59:07
-----BEGIN CERTIFICATE-----
MIIFCTCCAvGgAwIBAgICEAIwDQYJKoZIhvcNAQELBQAwgaYxCzAJBgNVBAYTAkNB
MRAwDgYDVQQIDAdPbnRhcmlvMRIwEAYDVQQHDAlLaXRjaGVuZXIxEjAQBgNVBAoM
CUt3YXJ0emxhYjESMBAGA1UECwwJa2V5bWFzdGVyMSIwIAYDVQQDDBlrZXltYXN0
ZXIuYXQua3dhcnR6bGFiLmNhMSUwIwYJKoZIhvcNAQkBFhZrZXltYXN0ZXJAa3dh
cnR6bGFiLmNhMB4XDTE3MDMxMTAxMDYxOVoXDTIyMDMxMDAxMDYxOVowazELMAkG
A1UEBhMCQ0ExEDAOBgNVBAgMB09udGFyaW8xEjAQBgNVBAoMCUt3YXJ0emxhYjES
MBAGA1UECwwJS2V5bWFzdGVyMSIwIAYDVQQDDBlrZXltYXN0ZXIuYXQua3dhcnR6
bGFiLmNhMIIBIjANBgkqhkiG9w0BAQEFAAOCAQ8AMIIBCgKCAQEAvjdruVpgpro6
gNmQ0Uo/aJRzREazt2PPT2Hlcd6HPuhOOUQfPuk3/vQP57GNQkMjExCE+PhH4eJo
2gTlCHlPcnhitj4HdajxXQ096N9qWbKVkLFd+OkQQfizoLTSOau907VpdrKovG/E
tjShU7JrGx3uV/QKVGkJYZXGhGmGIhyYHdXplwuo3WGpMvJzZDO2jluIp/751fVQ
Pf/A7nq1FJ11G/ZZZH0QEc4hsaiEKVABhAeUKUjqsG8bxzUN06Ws2hrSxR+n2rZ+
SGGP9COSdESIVWlti8dEUrPnmdsP9BBSYupmnjYQlKiN1VcoJAyPj4O+W00q1Pk7
TLmANYZLtwIDAQABo3sweTAJBgNVHRMEAjAAMCwGCWCGSAGG+EIBDQQfFh1PcGVu
U1NMIEdlbmVyYXRlZCBDZXJ0aWZpY2F0ZTAdBgNVHQ4EFgQU5GdvR02S8oyCziUc
4OG5EVFSFEcwHwYDVR0jBBgwFoAUwnHftHHRLd+0CPozOMsMm5wbmFMwDQYJKoZI
hvcNAQELBQADggIBAOR2uYbc4Q38o7amwFHcNBnPlyfXP440pIneSZ+eNETzKHqz
KrUPLrIGpQEC8GAKwIiB/wbLevDXqf1b8MDoTSb5tl+YDtSEIoqkUwGnZfYHEvzr
lS0+/3+66iEvDIN3crCXs/mABwcV/R5kYxEUPKNEPlK/F1HvV45xrX6ndD7+21B6
2EnVc0Pf+WG3e1wJnx3VGzqWVtmw140sLYprCNGuSm0KPRhA7PGjVBGH5JBXkHEA
acWVupSy/5FFVSIZcQH+kzds8UeRU/OxnB78y1TIIDkyRu1X/d2ABd228eRBvqY3
DDJ1LId9TIjpFU70Ouag9zctcMlJLFNXGARp7032Wt2pQhTEsFGfIeznLhkhlsaD
7Mdcym2P4+vbn//DWmv1MRy1j4L/KR0eNbV73UdJKBsRX3neHMzVjH9qhbAi60cT
c4Nce1FzcIpaE2fBWRy4uhQYybAbhkZW9lk1soaVhm7333mPnxglO+J8ccQkF9Rb
lAFLoEWUhmwbzXV2+QgiC5TTo70lpZn/jQ0jESpTsNFKrnBCc1FjGsjhsZZMNh41
Q+/OaC1BkNI1TfTysVHNyaCP2aB0kLid0dVDHc2TMcGKOhxYFKbUL2zPeSwGN0Cr
yeLwV/SDusjgCj+MXUGJ0mfPRc3xvD5gzozRxkX4yGOfFd5/D2epO+Wt31kH
-----END CERTIFICATE-----
